target datalayout = "e-m:e-p270:32:32-p271:32:32-p272:64:64-i64:64-i128:128-f80:128-n8:16:32:64-S128"
target triple = "x86_64-pc-linux-gnu"

%struct.VP8LHistogram = type { ptr, [256 x i32], [256 x i32], [256 x i32], [40 x i32], i32, i32, i64, i64, i64, i64, [5 x i8] }
%struct.VP8LHistogramSet = type { i32, i32, ptr }

; Function Attrs: inlinehint nounwind uwtable
define internal i32 @VP8LHistogramNumCodes(i32 noundef %0) #3 {
  %2 = alloca i32, align 4
  store i32 %0, ptr %2, align 4, !tbaa !14
  %3 = load i32, ptr %2, align 4, !tbaa !14
  %4 = icmp sgt i32 %3, 0
  br i1 %4, label %5, label %8

5:                                                ; preds = %1
  %6 = load i32, ptr %2, align 4, !tbaa !14
  %7 = shl i32 1, %6
  br label %9

8:                                                ; preds = %1
  br label %9

9:                                                ; preds = %8, %5
  %10 = phi i32 [ %7, %5 ], [ 0, %8 ]
  %11 = add nsw i32 280, %10
  ret i32 %11
}

; Function Attrs: nounwind uwtable
define internal i32 @GetHistogramSize(i32 noundef %0) #0 {
  %2 = alloca i32, align 4
  %3 = alloca i32, align 4
  %4 = alloca i64, align 8
  store i32 %0, ptr %2, align 4, !tbaa !14
  call void @llvm.lifetime.start.p0(i64 4, ptr %3) #7
  %5 = load i32, ptr %2, align 4, !tbaa !14
  %6 = call i32 @VP8LHistogramNumCodes(i32 noundef %5)
  store i32 %6, ptr %3, align 4, !tbaa !14
  call void @llvm.lifetime.start.p0(i64 8, ptr %4) #7
  %7 = load i32, ptr %3, align 4, !tbaa !14
  %8 = sext i32 %7 to i64
  %9 = mul i64 4, %8
  %10 = add i64 3288, %9
  store i64 %10, ptr %4, align 8, !tbaa !30
  %11 = load i64, ptr %4, align 8, !tbaa !30
  %12 = trunc i64 %11 to i32
  call void @llvm.lifetime.end.p0(i64 8, ptr %4) #7
  call void @llvm.lifetime.end.p0(i64 4, ptr %3) #7
  ret i32 %12
}

; Function Attrs: nounwind uwtable
define internal void @HistogramSetResetPointers(ptr noundef %0, i32 noundef %1) #0 {
  %3 = alloca ptr, align 8
  %4 = alloca i32, align 4
  %5 = alloca i32, align 4
  %6 = alloca i32, align 4
  %7 = alloca ptr, align 8
  store ptr %0, ptr %3, align 8, !tbaa !3
  store i32 %1, ptr %4, align 4, !tbaa !14
  call void @llvm.lifetime.start.p0(i64 4, ptr %5) #7
  call void @llvm.lifetime.start.p0(i64 4, ptr %6) #7
  %8 = load i32, ptr %4, align 4, !tbaa !14
  %9 = call i32 @GetHistogramSize(i32 noundef %8)
  store i32 %9, ptr %6, align 4, !tbaa !14
  call void @llvm.lifetime.start.p0(i64 8, ptr %7) #7
  %10 = load ptr, ptr %3, align 8, !tbaa !3
  %11 = getelementptr inbounds nuw %struct.VP8LHistogramSet, ptr %10, i32 0, i32 2
  %12 = load ptr, ptr %11, align 8, !tbaa !31
  store ptr %12, ptr %7, align 8, !tbaa !28
  %13 = load ptr, ptr %3, align 8, !tbaa !3
  %14 = getelementptr inbounds nuw %struct.VP8LHistogramSet, ptr %13, i32 0, i32 1
  %15 = load i32, ptr %14, align 4, !tbaa !33
  %16 = sext i32 %15 to i64
  %17 = mul i64 %16, 8
  %18 = load ptr, ptr %7, align 8, !tbaa !28
  %19 = getelementptr inbounds nuw i8, ptr %18, i64 %17
  store ptr %19, ptr %7, align 8, !tbaa !28
  store i32 0, ptr %5, align 4, !tbaa !14
  br label %20

20:                                               ; preds = %53, %2
  %21 = load i32, ptr %5, align 4, !tbaa !14
  %22 = load ptr, ptr %3, align 8, !tbaa !3
  %23 = getelementptr inbounds nuw %struct.VP8LHistogramSet, ptr %22, i32 0, i32 1
  %24 = load i32, ptr %23, align 4, !tbaa !33
  %25 = icmp slt i32 %21, %24
  br i1 %25, label %26, label %56

26:                                               ; preds = %20
  %27 = load ptr, ptr %7, align 8, !tbaa !28
  %28 = ptrtoint ptr %27 to i64
  %29 = add i64 %28, 31
  %30 = and i64 %29, -32
  %31 = inttoptr i64 %30 to ptr
  store ptr %31, ptr %7, align 8, !tbaa !28
  %32 = load ptr, ptr %7, align 8, !tbaa !28
  %33 = load ptr, ptr %3, align 8, !tbaa !3
  %34 = getelementptr inbounds nuw %struct.VP8LHistogramSet, ptr %33, i32 0, i32 2
  %35 = load ptr, ptr %34, align 8, !tbaa !31
  %36 = load i32, ptr %5, align 4, !tbaa !14
  %37 = sext i32 %36 to i64
  %38 = getelementptr inbounds ptr, ptr %35, i64 %37
  store ptr %32, ptr %38, align 8, !tbaa !3
  %39 = load ptr, ptr %7, align 8, !tbaa !28
  %40 = getelementptr inbounds nuw i8, ptr %39, i64 3288
  %41 = load ptr, ptr %3, align 8, !tbaa !3
  %42 = getelementptr inbounds nuw %struct.VP8LHistogramSet, ptr %41, i32 0, i32 2
  %43 = load ptr, ptr %42, align 8, !tbaa !31
  %44 = load i32, ptr %5, align 4, !tbaa !14
  %45 = sext i32 %44 to i64
  %46 = getelementptr inbounds ptr, ptr %43, i64 %45
  %47 = load ptr, ptr %46, align 8, !tbaa !3
  %48 = getelementptr inbounds nuw %struct.VP8LHistogram, ptr %47, i32 0, i32 0
  store ptr %40, ptr %48, align 8, !tbaa !16
  %49 = load i32, ptr %6, align 4, !tbaa !14
  %50 = load ptr, ptr %7, align 8, !tbaa !28
  %51 = sext i32 %49 to i64
  %52 = getelementptr inbounds i8, ptr %50, i64 %51
  store ptr %52, ptr %7, align 8, !tbaa !28
  br label %53

53:                                               ; preds = %26
  %54 = load i32, ptr %5, align 4, !tbaa !14
  %55 = add nsw i32 %54, 1
  store i32 %55, ptr %5, align 4, !tbaa !14
  br label %20, !llvm.loop !36

56:                                               ; preds = %20
  call void @llvm.lifetime.end.p0(i64 8, ptr %7) #7
  call void @llvm.lifetime.end.p0(i64 4, ptr %6) #7
  call void @llvm.lifetime.end.p0(i64 4, ptr %5) #7
  ret void
}

; Function Attrs: nounwind uwtable
define internal i64 @HistogramSetTotalSize(i32 noundef %0, i32 noundef %1) #0 {
  %3 = alloca i32, align 4
  %4 = alloca i32, align 4
  %5 = alloca i32, align 4
  store i32 %0, ptr %3, align 4, !tbaa !14
  store i32 %1, ptr %4, align 4, !tbaa !14
  call void @llvm.lifetime.start.p0(i64 4, ptr %5) #7
  %6 = load i32, ptr %4, align 4, !tbaa !14
  %7 = call i32 @GetHistogramSize(i32 noundef %6)
  store i32 %7, ptr %5, align 4, !tbaa !14
  %8 = load i32, ptr %3, align 4, !tbaa !14
  %9 = sext i32 %8 to i64
  %10 = load i32, ptr %5, align 4, !tbaa !14
  %11 = sext i32 %10 to i64
  %12 = add i64 8, %11
  %13 = add i64 %12, 31
  %14 = mul i64 %9, %13
  %15 = add i64 16, %14
  call void @llvm.lifetime.end.p0(i64 4, ptr %5) #7
  ret i64 %15
}

; Function Attrs: nounwind uwtable
define hidden void @VP8LHistogramSetClear(ptr noundef %0) #0 {
  %2 = alloca ptr, align 8
  %3 = alloca i32, align 4
  %4 = alloca i32, align 4
  %5 = alloca i32, align 4
  %6 = alloca i64, align 8
  %7 = alloca ptr, align 8
  store ptr %0, ptr %2, align 8, !tbaa !3
  call void @llvm.lifetime.start.p0(i64 4, ptr %3) #7
  call void @llvm.lifetime.start.p0(i64 4, ptr %4) #7
  %8 = load ptr, ptr %2, align 8, !tbaa !3
  %9 = getelementptr inbounds nuw %struct.VP8LHistogramSet, ptr %8, i32 0, i32 2
  %10 = load ptr, ptr %9, align 8, !tbaa !31
  %11 = getelementptr inbounds ptr, ptr %10, i64 0
  %12 = load ptr, ptr %11, align 8, !tbaa !3
  %13 = getelementptr inbounds nuw %struct.VP8LHistogram, ptr %12, i32 0, i32 5
  %14 = load i32, ptr %13, align 8, !tbaa !21
  store i32 %14, ptr %4, align 4, !tbaa !14
  call void @llvm.lifetime.start.p0(i64 4, ptr %5) #7
  %15 = load ptr, ptr %2, align 8, !tbaa !3
  %16 = getelementptr inbounds nuw %struct.VP8LHistogramSet, ptr %15, i32 0, i32 1
  %17 = load i32, ptr %16, align 4, !tbaa !33
  store i32 %17, ptr %5, align 4, !tbaa !14
  call void @llvm.lifetime.start.p0(i64 8, ptr %6) #7
  %18 = load i32, ptr %5, align 4, !tbaa !14
  %19 = load i32, ptr %4, align 4, !tbaa !14
  %20 = call i64 @HistogramSetTotalSize(i32 noundef %18, i32 noundef %19)
  store i64 %20, ptr %6, align 8, !tbaa !30
  call void @llvm.lifetime.start.p0(i64 8, ptr %7) #7
  %21 = load ptr, ptr %2, align 8, !tbaa !3
  store ptr %21, ptr %7, align 8, !tbaa !28
  %22 = load ptr, ptr %7, align 8, !tbaa !28
  %23 = load i64, ptr %6, align 8, !tbaa !30
  call void @llvm.memset.p0.i64(ptr align 1 %22, i8 0, i64 %23, i1 false)
  %24 = load ptr, ptr %7, align 8, !tbaa !28
  %25 = getelementptr inbounds nuw i8, ptr %24, i64 16
  store ptr %25, ptr %7, align 8, !tbaa !28
  %26 = load ptr, ptr %7, align 8, !tbaa !28
  %27 = load ptr, ptr %2, align 8, !tbaa !3
  %28 = getelementptr inbounds nuw %struct.VP8LHistogramSet, ptr %27, i32 0, i32 2
  store ptr %26, ptr %28, align 8, !tbaa !31
  %29 = load i32, ptr %5, align 4, !tbaa !14
  %30 = load ptr, ptr %2, align 8, !tbaa !3
  %31 = getelementptr inbounds nuw %struct.VP8LHistogramSet, ptr %30, i32 0, i32 1
  store i32 %29, ptr %31, align 4, !tbaa !33
  %32 = load i32, ptr %5, align 4, !tbaa !14
  %33 = load ptr, ptr %2, align 8, !tbaa !3
  %34 = getelementptr inbounds nuw %struct.VP8LHistogramSet, ptr %33, i32 0, i32 0
  store i32 %32, ptr %34, align 8, !tbaa !34
  %35 = load ptr, ptr %2, align 8, !tbaa !3
  %36 = load i32, ptr %4, align 4, !tbaa !14
  call void @HistogramSetResetPointers(ptr noundef %35, i32 noundef %36)
  store i32 0, ptr %3, align 4, !tbaa !14
  br label %37

37:                                               ; preds = %51, %1
  %38 = load i32, ptr %3, align 4, !tbaa !14
  %39 = load i32, ptr %5, align 4, !tbaa !14
  %40 = icmp slt i32 %38, %39
  br i1 %40, label %41, label %54

41:                                               ; preds = %37
  %42 = load i32, ptr %4, align 4, !tbaa !14
  %43 = load ptr, ptr %2, align 8, !tbaa !3
  %44 = getelementptr inbounds nuw %struct.VP8LHistogramSet, ptr %43, i32 0, i32 2
  %45 = load ptr, ptr %44, align 8, !tbaa !31
  %46 = load i32, ptr %3, align 4, !tbaa !14
  %47 = sext i32 %46 to i64
  %48 = getelementptr inbounds ptr, ptr %45, i64 %47
  %49 = load ptr, ptr %48, align 8, !tbaa !3
  %50 = getelementptr inbounds nuw %struct.VP8LHistogram, ptr %49, i32 0, i32 5
  store i32 %42, ptr %50, align 8, !tbaa !21
  br label %51

51:                                               ; preds = %41
  %52 = load i32, ptr %3, align 4, !tbaa !14
  %53 = add nsw i32 %52, 1
  store i32 %53, ptr %3, align 4, !tbaa !14
  br label %37, !llvm.loop !37

54:                                               ; preds = %37
  call void @llvm.lifetime.end.p0(i64 8, ptr %7) #7
  call void @llvm.lifetime.end.p0(i64 8, ptr %6) #7
  call void @llvm.lifetime.end.p0(i64 4, ptr %5) #7
  call void @llvm.lifetime.end.p0(i64 4, ptr %4) #7
  call void @llvm.lifetime.end.p0(i64 4, ptr %3) #7
  ret void
}