; Function Attrs: nofree norecurse nosync nounwind memory(readwrite, inaccessiblemem: none) uwtable
define hidden void @VP8LHistogramSetClear(ptr noundef %0) local_unnamed_addr #5 {
  %2 = getelementptr inbounds nuw i8, ptr %0, i64 8
  %3 = load ptr, ptr %2, align 8, !tbaa !25
  %4 = load ptr, ptr %3, align 8, !tbaa !29
  %5 = getelementptr inbounds nuw i8, ptr %4, i64 3240
  %6 = load i32, ptr %5, align 8, !tbaa !24
  %7 = getelementptr inbounds nuw i8, ptr %0, i64 4
  %8 = load i32, ptr %7, align 4, !tbaa !27
  %9 = icmp sgt i32 %6, 0
  %10 = shl i32 4, %6
  %11 = add nuw i32 %10, 4408
  %12 = select i1 %9, i32 %11, i32 4408
  %13 = sext i32 %8 to i64
  %14 = sext i32 %12 to i64
  %15 = add nsw i64 %14, 39
  %16 = mul nsw i64 %15, %13
  %17 = add nsw i64 %16, 16
  tail call void @llvm.memset.p0.i64(ptr align 1 %0, i8 0, i64 %17, i1 false)
  %18 = getelementptr inbounds nuw i8, ptr %0, i64 16
  store ptr %18, ptr %2, align 8, !tbaa !25
  store i32 %8, ptr %7, align 4, !tbaa !27
  store i32 %8, ptr %0, align 8, !tbaa !28
  %19 = icmp sgt i32 %8, 0
  br i1 %19, label %.lr.ph.i, label %._crit_edge

.lr.ph.i:                                         ; preds = %1
  %20 = zext nneg i32 %8 to i64
  %21 = shl nuw nsw i64 %20, 3
  %22 = getelementptr inbounds nuw i8, ptr %18, i64 %21
  br label %23

23:                                               ; preds = %23, %.lr.ph.i
  %24 = phi ptr [ %18, %.lr.ph.i ], [ %31, %23 ]
  %indvars.iv.i = phi i64 [ 0, %.lr.ph.i ], [ %indvars.iv.next.i, %23 ]
  %.017.i = phi ptr [ %22, %.lr.ph.i ], [ %34, %23 ]
  %25 = ptrtoint ptr %.017.i to i64
  %26 = add i64 %25, 31
  %27 = and i64 %26, -32
  %28 = inttoptr i64 %27 to ptr
  %29 = getelementptr inbounds nuw ptr, ptr %24, i64 %indvars.iv.i
  store ptr %28, ptr %29, align 8, !tbaa !29
  %30 = getelementptr inbounds nuw i8, ptr %28, i64 3288
  %31 = load ptr, ptr %2, align 8, !tbaa !25
  %32 = getelementptr inbounds nuw ptr, ptr %31, i64 %indvars.iv.i
  %33 = load ptr, ptr %32, align 8, !tbaa !29
  store ptr %30, ptr %33, align 8, !tbaa !18
  %34 = getelementptr inbounds i8, ptr %28, i64 %14
  %indvars.iv.next.i = add nuw nsw i64 %indvars.iv.i, 1
  %exitcond.not.i = icmp eq i64 %indvars.iv.next.i, %20
  br i1 %exitcond.not.i, label %.lr.ph, label %23, !llvm.loop !30

.lr.ph:                                           ; preds = %23
  %wide.trip.count = zext nneg i32 %8 to i64
  br label %35

35:                                               ; preds = %.lr.ph, %35
  %indvars.iv = phi i64 [ 0, %.lr.ph ], [ %indvars.iv.next, %35 ]
  %36 = getelementptr inbounds nuw ptr, ptr %31, i64 %indvars.iv
  %37 = load ptr, ptr %36, align 8, !tbaa !29
  %38 = getelementptr inbounds nuw i8, ptr %37, i64 3240
  store i32 %6, ptr %38, align 8, !tbaa !24
  %indvars.iv.next = add nuw nsw i64 %indvars.iv, 1
  %exitcond.not = icmp eq i64 %indvars.iv.next, %wide.trip.count
  br i1 %exitcond.not, label %._crit_edge, label %35, !llvm.loop !32

._crit_edge:                                      ; preds = %35, %1
  ret void
}